target datalayout = "e-m:e-p270:32:32-p271:32:32-p272:64:64-i64:64-i128:128-f80:128-n8:16:32:64-S128"
target triple = "x86_64-pc-linux-gnu"

%struct.expert_field = type { i32, i32 }
%struct.srtp_info = type { i32, i32, i32, i32 }
%struct._packet_info = type { ptr, ptr, i32, i32, %struct.nstime_t, %struct.nstime_t, %struct.nstime_t, i8, ptr, ptr, ptr, ptr, %struct._address, %struct._address, %struct._address, %struct._address, %struct._address, %struct._address, i32, ptr, i8, [3 x i8], %struct.anon, i32, i32, i32, i32, ptr, i8, ptr, ptr, i16, i16, i32, i32, i16, i32, i32, ptr, ptr, ptr, i8, i8, i16, i16, i16, i32, i16, i16, ptr, ptr, ptr, ptr, ptr, i32, i32 }
%struct.nstime_t = type { i64, i32 }
%struct._address = type { i32, i32, ptr, ptr }
%struct.anon = type { i8, [3 x i8] }

@hf_dtls_hs_ext_use_srtp_protection_profiles_length = internal global i32 0, align 4
@ei_dtls_use_srtp_profiles_length = internal global %struct.expert_field zeroinitializer, align 4
@.str = private unnamed_addr constant [71 x i8] c"The protection profiles length exceeds the extension data field length\00", align 1
@.str.1 = private unnamed_addr constant [58 x i8] c"The server MUST return a single chosen protection profile\00", align 1
@hf_dtls_hs_ext_use_srtp_protection_profile = internal global i32 0, align 4
@hf_dtls_hs_ext_use_srtp_mki_length = internal global i32 0, align 4
@hf_dtls_hs_ext_use_srtp_mki = internal global i32 0, align 4
@.str.2 = private unnamed_addr constant [10 x i8] c"DTLS-SRTP\00", align 1

; Function Attrs: null_pointer_is_valid sspstrong uwtable
define hidden i32 @dtls_dissect_hnd_hello_ext_use_srtp(ptr noundef %0, ptr noundef %1, ptr noundef %2, i32 noundef %3, i32 noundef %4, i1 noundef zeroext %5) #0 {
  %7 = alloca i32, align 4
  %8 = alloca ptr, align 8
  %9 = alloca ptr, align 8
  %10 = alloca ptr, align 8
  %11 = alloca i32, align 4
  %12 = alloca i32, align 4
  %13 = alloca i8, align 1
  %14 = alloca ptr, align 8
  %15 = alloca i32, align 4
  %16 = alloca i32, align 4
  %17 = alloca i32, align 4
  %18 = alloca i32, align 4
  %19 = alloca i32, align 4
  %20 = alloca ptr, align 8
  store ptr %0, ptr %8, align 8
  store ptr %1, ptr %9, align 8
  store ptr %2, ptr %10, align 8
  store i32 %3, ptr %11, align 4
  store i32 %4, ptr %12, align 4
  %21 = zext i1 %5 to i8
  store i8 %21, ptr %13, align 1
  call void @llvm.lifetime.start.p0(i64 8, ptr %14) #12
  call void @llvm.lifetime.start.p0(i64 4, ptr %15) #12
  call void @llvm.lifetime.start.p0(i64 4, ptr %16) #12
  call void @llvm.lifetime.start.p0(i64 4, ptr %17) #12
  call void @llvm.lifetime.start.p0(i64 4, ptr %18) #12
  %22 = load i32, ptr %12, align 4
  %23 = icmp ult i32 %22, 2
  br i1 %23, label %24, label %28

24:                                               ; preds = %6
  %25 = load i32, ptr %11, align 4
  %26 = load i32, ptr %12, align 4
  %27 = add i32 %25, %26
  store i32 %27, ptr %7, align 4
  store i32 1, ptr %19, align 4
  br label %183

28:                                               ; preds = %6
  %29 = load ptr, ptr %10, align 8
  %30 = load i32, ptr @hf_dtls_hs_ext_use_srtp_protection_profiles_length, align 4
  %31 = load ptr, ptr %9, align 8
  %32 = load i32, ptr %11, align 4
  %33 = call ptr @proto_tree_add_item_ret_uint(ptr noundef %29, i32 noundef %30, ptr noundef %31, i32 noundef %32, i32 noundef 2, i32 noundef 0, ptr noundef %15)
  store ptr %33, ptr %14, align 8
  %34 = load i32, ptr %15, align 4
  %35 = load i32, ptr %12, align 4
  %36 = sub i32 %35, 2
  %37 = icmp ugt i32 %34, %36
  br i1 %37, label %38, label %44

38:                                               ; preds = %28
  %39 = load i32, ptr %12, align 4
  %40 = sub i32 %39, 2
  store i32 %40, ptr %15, align 4
  %41 = load ptr, ptr %8, align 8
  %42 = load ptr, ptr %14, align 8
  %43 = call ptr (ptr, ptr, ptr, ptr, ...) @expert_add_info_format(ptr noundef %41, ptr noundef %42, ptr noundef @ei_dtls_use_srtp_profiles_length, ptr noundef @.str)
  br label %44

44:                                               ; preds = %38, %28
  %45 = load i8, ptr %13, align 1, !range !6, !noundef !7
  %46 = trunc i8 %45 to i1
  br i1 %46, label %47, label %54

47:                                               ; preds = %44
  %48 = load i32, ptr %15, align 4
  %49 = icmp ne i32 %48, 2
  br i1 %49, label %50, label %54

50:                                               ; preds = %47
  store i32 0, ptr %17, align 4
  %51 = load ptr, ptr %8, align 8
  %52 = load ptr, ptr %14, align 8
  %53 = call ptr (ptr, ptr, ptr, ptr, ...) @expert_add_info_format(ptr noundef %51, ptr noundef %52, ptr noundef @ei_dtls_use_srtp_profiles_length, ptr noundef @.str.1)
  br label %54

54:                                               ; preds = %50, %47, %44
  %55 = load i32, ptr %11, align 4
  %56 = add i32 %55, 2
  store i32 %56, ptr %11, align 4
  %57 = load i32, ptr %11, align 4
  %58 = load i32, ptr %15, align 4
  %59 = add i32 %57, %58
  store i32 %59, ptr %16, align 4
  br label %60

60:                                               ; preds = %64, %54
  %61 = load i32, ptr %11, align 4
  %62 = load i32, ptr %16, align 4
  %63 = icmp ult i32 %61, %62
  br i1 %63, label %64, label %72

64:                                               ; preds = %60
  %65 = load ptr, ptr %10, align 8
  %66 = load i32, ptr @hf_dtls_hs_ext_use_srtp_protection_profile, align 4
  %67 = load ptr, ptr %9, align 8
  %68 = load i32, ptr %11, align 4
  %69 = call ptr @proto_tree_add_item_ret_uint(ptr noundef %65, i32 noundef %66, ptr noundef %67, i32 noundef %68, i32 noundef 2, i32 noundef 0, ptr noundef %17)
  %70 = load i32, ptr %11, align 4
  %71 = add i32 %70, 2
  store i32 %71, ptr %11, align 4
  br label %60, !llvm.loop !8

72:                                               ; preds = %60
  %73 = load ptr, ptr %10, align 8
  %74 = load i32, ptr @hf_dtls_hs_ext_use_srtp_mki_length, align 4
  %75 = load ptr, ptr %9, align 8
  %76 = load i32, ptr %11, align 4
  %77 = call ptr @proto_tree_add_item_ret_uint(ptr noundef %73, i32 noundef %74, ptr noundef %75, i32 noundef %76, i32 noundef 1, i32 noundef 0, ptr noundef %18)
  %78 = load i32, ptr %11, align 4
  %79 = add i32 %78, 1
  store i32 %79, ptr %11, align 4
  %80 = load i32, ptr %18, align 4
  %81 = icmp ugt i32 %80, 0
  br i1 %81, label %82, label %92

82:                                               ; preds = %72
  %83 = load ptr, ptr %10, align 8
  %84 = load i32, ptr @hf_dtls_hs_ext_use_srtp_mki, align 4
  %85 = load ptr, ptr %9, align 8
  %86 = load i32, ptr %11, align 4
  %87 = load i32, ptr %18, align 4
  %88 = call ptr @proto_tree_add_item(ptr noundef %83, i32 noundef %84, ptr noundef %85, i32 noundef %86, i32 noundef %87, i32 noundef 0)
  %89 = load i32, ptr %18, align 4
  %90 = load i32, ptr %11, align 4
  %91 = add i32 %90, %89
  store i32 %91, ptr %11, align 4
  br label %92

92:                                               ; preds = %82, %72
  %93 = load i8, ptr %13, align 1, !range !6, !noundef !7
  %94 = trunc i8 %93 to i1
  br i1 %94, label %98, label %95

95:                                               ; preds = %92
  %96 = load i32, ptr %15, align 4
  %97 = icmp eq i32 %96, 2
  br i1 %97, label %98, label %181

98:                                               ; preds = %95, %92
  call void @llvm.lifetime.start.p0(i64 8, ptr %20) #12
  %99 = call ptr @wmem_file_scope()
  %100 = call noalias ptr @wmem_alloc0(ptr noundef %99, i64 noundef 16) #13
  store ptr %100, ptr %20, align 8
  %101 = load i32, ptr %17, align 4
  switch i32 %101, label %144 [
    i32 1, label %102
    i32 2, label %109
    i32 5, label %116
    i32 6, label %123
    i32 7, label %130
    i32 8, label %137
  ]

102:                                              ; preds = %98
  %103 = load ptr, ptr %20, align 8
  %104 = getelementptr inbounds nuw %struct.srtp_info, ptr %103, i32 0, i32 0
  store i32 2, ptr %104, align 4
  %105 = load ptr, ptr %20, align 8
  %106 = getelementptr inbounds nuw %struct.srtp_info, ptr %105, i32 0, i32 1
  store i32 1, ptr %106, align 4
  %107 = load ptr, ptr %20, align 8
  %108 = getelementptr inbounds nuw %struct.srtp_info, ptr %107, i32 0, i32 3
  store i32 10, ptr %108, align 4
  br label %151

109:                                              ; preds = %98
  %110 = load ptr, ptr %20, align 8
  %111 = getelementptr inbounds nuw %struct.srtp_info, ptr %110, i32 0, i32 0
  store i32 2, ptr %111, align 4
  %112 = load ptr, ptr %20, align 8
  %113 = getelementptr inbounds nuw %struct.srtp_info, ptr %112, i32 0, i32 1
  store i32 1, ptr %113, align 4
  %114 = load ptr, ptr %20, align 8
  %115 = getelementptr inbounds nuw %struct.srtp_info, ptr %114, i32 0, i32 3
  store i32 4, ptr %115, align 4
  br label %151

116:                                              ; preds = %98
  %117 = load ptr, ptr %20, align 8
  %118 = getelementptr inbounds nuw %struct.srtp_info, ptr %117, i32 0, i32 0
  store i32 1, ptr %118, align 4
  %119 = load ptr, ptr %20, align 8
  %120 = getelementptr inbounds nuw %struct.srtp_info, ptr %119, i32 0, i32 1
  store i32 1, ptr %120, align 4
  %121 = load ptr, ptr %20, align 8
  %122 = getelementptr inbounds nuw %struct.srtp_info, ptr %121, i32 0, i32 3
  store i32 10, ptr %122, align 4
  br label %151

123:                                              ; preds = %98
  %124 = load ptr, ptr %20, align 8
  %125 = getelementptr inbounds nuw %struct.srtp_info, ptr %124, i32 0, i32 0
  store i32 1, ptr %125, align 4
  %126 = load ptr, ptr %20, align 8
  %127 = getelementptr inbounds nuw %struct.srtp_info, ptr %126, i32 0, i32 1
  store i32 1, ptr %127, align 4
  %128 = load ptr, ptr %20, align 8
  %129 = getelementptr inbounds nuw %struct.srtp_info, ptr %128, i32 0, i32 3
  store i32 4, ptr %129, align 4
  br label %151

130:                                              ; preds = %98
  %131 = load ptr, ptr %20, align 8
  %132 = getelementptr inbounds nuw %struct.srtp_info, ptr %131, i32 0, i32 0
  store i32 2, ptr %132, align 4
  %133 = load ptr, ptr %20, align 8
  %134 = getelementptr inbounds nuw %struct.srtp_info, ptr %133, i32 0, i32 1
  store i32 2, ptr %134, align 4
  %135 = load ptr, ptr %20, align 8
  %136 = getelementptr inbounds nuw %struct.srtp_info, ptr %135, i32 0, i32 3
  store i32 16, ptr %136, align 4
  br label %151

137:                                              ; preds = %98
  %138 = load ptr, ptr %20, align 8
  %139 = getelementptr inbounds nuw %struct.srtp_info, ptr %138, i32 0, i32 0
  store i32 2, ptr %139, align 4
  %140 = load ptr, ptr %20, align 8
  %141 = getelementptr inbounds nuw %struct.srtp_info, ptr %140, i32 0, i32 1
  store i32 2, ptr %141, align 4
  %142 = load ptr, ptr %20, align 8
  %143 = getelementptr inbounds nuw %struct.srtp_info, ptr %142, i32 0, i32 3
  store i32 16, ptr %143, align 4
  br label %151

144:                                              ; preds = %98
  %145 = load ptr, ptr %20, align 8
  %146 = getelementptr inbounds nuw %struct.srtp_info, ptr %145, i32 0, i32 0
  store i32 2, ptr %146, align 4
  %147 = load ptr, ptr %20, align 8
  %148 = getelementptr inbounds nuw %struct.srtp_info, ptr %147, i32 0, i32 1
  store i32 1, ptr %148, align 4
  %149 = load ptr, ptr %20, align 8
  %150 = getelementptr inbounds nuw %struct.srtp_info, ptr %149, i32 0, i32 3
  store i32 10, ptr %150, align 4
  br label %151

151:                                              ; preds = %144, %137, %130, %123, %116, %109, %102
  %152 = load i32, ptr %18, align 4
  %153 = load ptr, ptr %20, align 8
  %154 = getelementptr inbounds nuw %struct.srtp_info, ptr %153, i32 0, i32 2
  store i32 %152, ptr %154, align 4
  %155 = load ptr, ptr %8, align 8
  %156 = load ptr, ptr %8, align 8
  %157 = getelementptr inbounds nuw %struct._packet_info, ptr %156, i32 0, i32 14
  %158 = load ptr, ptr %8, align 8
  %159 = getelementptr inbounds nuw %struct._packet_info, ptr %158, i32 0, i32 24
  %160 = load i32, ptr %159, align 4
  %161 = load ptr, ptr %8, align 8
  %162 = getelementptr inbounds nuw %struct._packet_info, ptr %161, i32 0, i32 25
  %163 = load i32, ptr %162, align 8
  %164 = load ptr, ptr %8, align 8
  %165 = getelementptr inbounds nuw %struct._packet_info, ptr %164, i32 0, i32 3
  %166 = load i32, ptr %165, align 4
  %167 = load ptr, ptr %20, align 8
  call void @srtp_add_address(ptr noundef %155, i32 noundef 3, ptr noundef %157, i32 noundef %160, i32 noundef %163, ptr noundef @.str.2, i32 noundef %166, i32 noundef 1, ptr noundef null, ptr noundef %167, ptr noundef null)
  %168 = load ptr, ptr %8, align 8
  %169 = load ptr, ptr %8, align 8
  %170 = getelementptr inbounds nuw %struct._packet_info, ptr %169, i32 0, i32 15
  %171 = load ptr, ptr %8, align 8
  %172 = getelementptr inbounds nuw %struct._packet_info, ptr %171, i32 0, i32 25
  %173 = load i32, ptr %172, align 8
  %174 = load ptr, ptr %8, align 8
  %175 = getelementptr inbounds nuw %struct._packet_info, ptr %174, i32 0, i32 24
  %176 = load i32, ptr %175, align 4
  %177 = load ptr, ptr %8, align 8
  %178 = getelementptr inbounds nuw %struct._packet_info, ptr %177, i32 0, i32 3
  %179 = load i32, ptr %178, align 4
  %180 = load ptr, ptr %20, align 8
  call void @srtp_add_address(ptr noundef %168, i32 noundef 3, ptr noundef %170, i32 noundef %173, i32 noundef %176, ptr noundef @.str.2, i32 noundef %179, i32 noundef 1, ptr noundef null, ptr noundef %180, ptr noundef null)
  call void @llvm.lifetime.end.p0(i64 8, ptr %20) #12
  br label %181

181:                                              ; preds = %151, %95
  %182 = load i32, ptr %11, align 4
  store i32 %182, ptr %7, align 4
  store i32 1, ptr %19, align 4
  br label %183

183:                                              ; preds = %181, %24
  call void @llvm.lifetime.end.p0(i64 4, ptr %18) #12
  call void @llvm.lifetime.end.p0(i64 4, ptr %17) #12
  call void @llvm.lifetime.end.p0(i64 4, ptr %16) #12
  call void @llvm.lifetime.end.p0(i64 4, ptr %15) #12
  call void @llvm.lifetime.end.p0(i64 8, ptr %14) #12
  %184 = load i32, ptr %7, align 4
  ret i32 %184
}