; Function Attrs: null_pointer_is_valid sspstrong uwtable
define hidden i32 @dtls_dissect_hnd_hello_ext_use_srtp(ptr noundef %0, ptr noundef %1, ptr noundef %2, i32 noundef %3, i32 noundef %4, i1 noundef zeroext %5) local_unnamed_addr #0 {
  %7 = alloca i32, align 4
  %8 = alloca i32, align 4
  %9 = alloca i32, align 4
  call void @llvm.lifetime.start.p0(i64 4, ptr nonnull %7) #10
  call void @llvm.lifetime.start.p0(i64 4, ptr nonnull %8) #10
  call void @llvm.lifetime.start.p0(i64 4, ptr nonnull %9) #10
  %10 = icmp ult i32 %4, 2
  br i1 %10, label %11, label %13

11:                                               ; preds = %6
  %12 = add i32 %4, %3
  br label %71

13:                                               ; preds = %6
  %14 = load i32, ptr @hf_dtls_hs_ext_use_srtp_protection_profiles_length, align 4
  %15 = call ptr @proto_tree_add_item_ret_uint(ptr noundef %2, i32 noundef %14, ptr noundef %1, i32 noundef %3, i32 noundef 2, i32 noundef 0, ptr noundef nonnull %7)
  %16 = load i32, ptr %7, align 4
  %17 = add i32 %4, -2
  %18 = icmp ugt i32 %16, %17
  br i1 %18, label %19, label %21

19:                                               ; preds = %13
  store i32 %17, ptr %7, align 4
  %20 = call ptr (ptr, ptr, ptr, ptr, ...) @expert_add_info_format(ptr noundef %0, ptr noundef %15, ptr noundef nonnull @ei_dtls_use_srtp_profiles_length, ptr noundef nonnull @.str)
  %.pre = load i32, ptr %7, align 4
  br label %21

21:                                               ; preds = %19, %13
  %22 = phi i32 [ %.pre, %19 ], [ %16, %13 ]
  %23 = icmp ne i32 %22, 2
  %or.cond = select i1 %5, i1 %23, i1 false
  br i1 %or.cond, label %24, label %26

24:                                               ; preds = %21
  store i32 0, ptr %8, align 4
  %25 = call ptr (ptr, ptr, ptr, ptr, ...) @expert_add_info_format(ptr noundef %0, ptr noundef %15, ptr noundef nonnull @ei_dtls_use_srtp_profiles_length, ptr noundef nonnull @.str.1)
  %.pre74 = load i32, ptr %7, align 4
  br label %26

26:                                               ; preds = %24, %21
  %27 = phi i32 [ %.pre74, %24 ], [ %22, %21 ]
  %28 = add i32 %3, 2
  %29 = add i32 %27, %28
  %30 = icmp ult i32 %28, %29
  br i1 %30, label %.lr.ph, label %._crit_edge

.lr.ph:                                           ; preds = %26, %.lr.ph
  %.06873 = phi i32 [ %33, %.lr.ph ], [ %28, %26 ]
  %31 = load i32, ptr @hf_dtls_hs_ext_use_srtp_protection_profile, align 4
  %32 = call ptr @proto_tree_add_item_ret_uint(ptr noundef %2, i32 noundef %31, ptr noundef %1, i32 noundef %.06873, i32 noundef 2, i32 noundef 0, ptr noundef nonnull %8)
  %33 = add i32 %.06873, 2
  %34 = icmp ult i32 %33, %29
  br i1 %34, label %.lr.ph, label %._crit_edge, !llvm.loop !6

._crit_edge:                                      ; preds = %.lr.ph, %26
  %.068.lcssa = phi i32 [ %28, %26 ], [ %33, %.lr.ph ]
  %35 = load i32, ptr @hf_dtls_hs_ext_use_srtp_mki_length, align 4
  %36 = call ptr @proto_tree_add_item_ret_uint(ptr noundef %2, i32 noundef %35, ptr noundef %1, i32 noundef %.068.lcssa, i32 noundef 1, i32 noundef 0, ptr noundef nonnull %9)
  %37 = add i32 %.068.lcssa, 1
  %38 = load i32, ptr %9, align 4
  %.not = icmp eq i32 %38, 0
  br i1 %.not, label %44, label %39

39:                                               ; preds = %._crit_edge
  %40 = load i32, ptr @hf_dtls_hs_ext_use_srtp_mki, align 4
  %41 = call ptr @proto_tree_add_item(ptr noundef %2, i32 noundef %40, ptr noundef %1, i32 noundef %37, i32 noundef %38, i32 noundef 0)
  %42 = load i32, ptr %9, align 4
  %43 = add i32 %42, %37
  br label %44

44:                                               ; preds = %39, %._crit_edge
  %.1 = phi i32 [ %43, %39 ], [ %37, %._crit_edge ]
  %45 = load i32, ptr %7, align 4
  %46 = icmp eq i32 %45, 2
  %or.cond3 = select i1 %5, i1 true, i1 %46
  br i1 %or.cond3, label %47, label %71

47:                                               ; preds = %44
  %48 = call ptr @wmem_file_scope()
  %49 = call noalias dereferenceable_or_null(16) ptr @wmem_alloc0(ptr noundef %48, i64 noundef 16) #11
  %50 = load i32, ptr %8, align 4
  %51 = getelementptr inbounds nuw i8, ptr %49, i64 4
  %52 = getelementptr inbounds nuw i8, ptr %49, i64 12
  %switch.tableidx = add i32 %50, -2
  %53 = icmp ult i32 %switch.tableidx, 7
  br i1 %53, label %switch.lookup, label %57

switch.lookup:                                    ; preds = %47
  %54 = zext nneg i32 %switch.tableidx to i64
  %switch.gep = getelementptr inbounds nuw [7 x i32], ptr @switch.table.dtls_dissect_hnd_hello_ext_use_srtp, i64 0, i64 %54
  %switch.load = load i32, ptr %switch.gep, align 4
  %55 = zext nneg i32 %switch.tableidx to i64
  %switch.gep77 = getelementptr inbounds nuw [7 x i32], ptr @switch.table.dtls_dissect_hnd_hello_ext_use_srtp.2, i64 0, i64 %55
  %switch.load78 = load i32, ptr %switch.gep77, align 4
  %56 = zext nneg i32 %switch.tableidx to i64
  %switch.gep79 = getelementptr inbounds nuw [7 x i32], ptr @switch.table.dtls_dissect_hnd_hello_ext_use_srtp.3, i64 0, i64 %56
  %switch.load80 = load i32, ptr %switch.gep79, align 4
  br label %57

57:                                               ; preds = %47, %switch.lookup
  %.sink76 = phi i32 [ %switch.load, %switch.lookup ], [ 2, %47 ]
  %.sink75 = phi i32 [ %switch.load78, %switch.lookup ], [ 1, %47 ]
  %.sink = phi i32 [ %switch.load80, %switch.lookup ], [ 10, %47 ]
  store i32 %.sink76, ptr %49, align 4
  store i32 %.sink75, ptr %51, align 4
  store i32 %.sink, ptr %52, align 4
  %58 = load i32, ptr %9, align 4
  %59 = getelementptr inbounds nuw i8, ptr %49, i64 8
  store i32 %58, ptr %59, align 4
  %60 = getelementptr inbounds nuw i8, ptr %0, i64 160
  %61 = getelementptr inbounds nuw i8, ptr %0, i64 284
  %62 = load i32, ptr %61, align 4
  %63 = getelementptr inbounds nuw i8, ptr %0, i64 288
  %64 = load i32, ptr %63, align 8
  %65 = getelementptr inbounds nuw i8, ptr %0, i64 20
  %66 = load i32, ptr %65, align 4
  call void @srtp_add_address(ptr noundef %0, i32 noundef 3, ptr noundef nonnull %60, i32 noundef %62, i32 noundef %64, ptr noundef nonnull @.str.2, i32 noundef %66, i32 noundef 1, ptr noundef null, ptr noundef %49, ptr noundef null)
  %67 = getelementptr inbounds nuw i8, ptr %0, i64 184
  %68 = load i32, ptr %63, align 8
  %69 = load i32, ptr %61, align 4
  %70 = load i32, ptr %65, align 4
  call void @srtp_add_address(ptr noundef %0, i32 noundef 3, ptr noundef nonnull %67, i32 noundef %68, i32 noundef %69, ptr noundef nonnull @.str.2, i32 noundef %70, i32 noundef 1, ptr noundef null, ptr noundef %49, ptr noundef null)
  br label %71

71:                                               ; preds = %57, %44, %11
  %.0 = phi i32 [ %12, %11 ], [ %.1, %44 ], [ %.1, %57 ]
  call void @llvm.lifetime.end.p0(i64 4, ptr nonnull %9) #10
  call void @llvm.lifetime.end.p0(i64 4, ptr nonnull %8) #10
  call void @llvm.lifetime.end.p0(i64 4, ptr nonnull %7) #10
  ret i32 %.0
}